; Function Attrs: mustprogress nofree norecurse nosync nounwind memory(argmem: readwrite) uwtable
define hidden void @_ZN2cv11bioinspired11RetinaColor33_interpolateSingleChannelImage111EPf(ptr noundef nonnull readonly align 8 captures(none) dereferenceable(349) %0, ptr noundef captures(none) %1) local_unnamed_addr #10 align 2 {
  %3 = getelementptr inbounds nuw i8, ptr %0, i64 32
  %4 = load i64, ptr %3, align 8, !tbaa !150
  %5 = trunc i64 %4 to i32
  %.not = icmp eq i32 %5, 0
  %.phi.trans.insert = getelementptr inbounds nuw i8, ptr %0, i64 40
  %.pre = load i64, ptr %.phi.trans.insert, align 8, !tbaa !62
  %.pre50 = trunc i64 %.pre to i32
  br i1 %.not, label %.preheader31, label %.preheader32.lr.ph

.preheader32.lr.ph:                               ; preds = %2
  %6 = add i32 %.pre50, -1
  %7 = icmp ugt i32 %6, 1
  br i1 %7, label %.preheader32.us.preheader, label %.preheader.lr.ph

.preheader32.us.preheader:                        ; preds = %.preheader32.lr.ph
  %wide.trip.count = zext i32 %6 to i64
  br label %.preheader32.us

.preheader32.us:                                  ; preds = %.preheader32.us.preheader, %._crit_edge.us
  %.034.us = phi i32 [ %26, %._crit_edge.us ], [ 0, %.preheader32.us.preheader ]
  %8 = mul i32 %.034.us, %.pre50
  br label %9

9:                                                ; preds = %.preheader32.us, %9
  %indvars.iv = phi i64 [ 1, %.preheader32.us ], [ %indvars.iv.next, %9 ]
  %10 = trunc nuw i64 %indvars.iv to i32
  %11 = add i32 %8, %10
  %12 = add i32 %11, -1
  %13 = zext i32 %12 to i64
  %14 = getelementptr inbounds nuw float, ptr %1, i64 %13
  %15 = load float, ptr %14, align 4, !tbaa !31
  %16 = zext i32 %11 to i64
  %17 = getelementptr inbounds nuw float, ptr %1, i64 %16
  %18 = load float, ptr %17, align 4, !tbaa !31
  %19 = fadd float %15, %18
  %20 = add i32 %11, 1
  %21 = zext i32 %20 to i64
  %22 = getelementptr inbounds nuw float, ptr %1, i64 %21
  %23 = load float, ptr %22, align 4, !tbaa !31
  %24 = fadd float %19, %23
  %25 = fdiv float %24, 3.000000e+00
  store float %25, ptr %17, align 4, !tbaa !31
  %indvars.iv.next = add nuw nsw i64 %indvars.iv, 1
  %exitcond.not = icmp eq i64 %indvars.iv.next, %wide.trip.count
  br i1 %exitcond.not, label %._crit_edge.us, label %9, !llvm.loop !176

._crit_edge.us:                                   ; preds = %9
  %26 = add nuw i32 %.034.us, 1
  %exitcond43.not = icmp eq i32 %26, %5
  br i1 %exitcond43.not, label %.preheader31, label %.preheader32.us, !llvm.loop !177

.preheader31:                                     ; preds = %._crit_edge.us, %2
  %.not39 = icmp eq i32 %.pre50, 0
  br i1 %.not39, label %._crit_edge37, label %.preheader.lr.ph

.preheader.lr.ph:                                 ; preds = %.preheader32.lr.ph, %.preheader31
  %27 = add i32 %5, -1
  %28 = icmp ugt i32 %27, 1
  br i1 %28, label %.preheader.us.preheader, label %._crit_edge37

.preheader.us.preheader:                          ; preds = %.preheader.lr.ph
  %wide.trip.count47 = zext i32 %27 to i64
  %29 = add nsw i64 %wide.trip.count47, -2
  %ident.check = icmp ne i64 %.pre, 1
  %30 = trunc i64 %29 to i32
  %31 = icmp ugt i64 %29, 4294967295
  %32 = trunc i64 %29 to i32
  %invariant.op56 = or i1 %31, %ident.check
  br label %.lver.check

.lver.check:                                      ; preds = %.preheader.us.preheader, %._crit_edge.us38
  %indvar = phi i64 [ 0, %.preheader.us.preheader ], [ %indvar.next, %._crit_edge.us38 ]
  %.02936.us = phi i32 [ 0, %.preheader.us.preheader ], [ %69, %._crit_edge.us38 ]
  %33 = sub i32 -2, %.02936.us
  %34 = icmp ult i32 %33, %30
  %35 = sub i32 -3, %.02936.us
  %36 = icmp ult i32 %35, %32
  %.reass57 = or i1 %34, %invariant.op56
  %37 = or i1 %36, %.reass57
  br i1 %37, label %.ph.lver.orig, label %.ph

.ph.lver.orig:                                    ; preds = %.lver.check, %.ph.lver.orig
  %indvars.iv44.lver.orig = phi i64 [ %indvars.iv.next45.lver.orig, %.ph.lver.orig ], [ 1, %.lver.check ]
  %38 = trunc nuw i64 %indvars.iv44.lver.orig to i32
  %39 = mul i32 %.pre50, %38
  %40 = add i32 %39, %.02936.us
  %41 = sub i32 %40, %.pre50
  %42 = zext i32 %41 to i64
  %43 = getelementptr inbounds nuw float, ptr %1, i64 %42
  %44 = load float, ptr %43, align 4, !tbaa !31
  %45 = zext i32 %40 to i64
  %46 = getelementptr inbounds nuw float, ptr %1, i64 %45
  %47 = load float, ptr %46, align 4, !tbaa !31
  %48 = fadd float %44, %47
  %49 = add i32 %40, %.pre50
  %50 = zext i32 %49 to i64
  %51 = getelementptr inbounds nuw float, ptr %1, i64 %50
  %52 = load float, ptr %51, align 4, !tbaa !31
  %53 = fadd float %48, %52
  %54 = fdiv float %53, 3.000000e+00
  store float %54, ptr %46, align 4, !tbaa !31
  %indvars.iv.next45.lver.orig = add nuw nsw i64 %indvars.iv44.lver.orig, 1
  %exitcond48.not.lver.orig = icmp eq i64 %indvars.iv.next45.lver.orig, %wide.trip.count47
  br i1 %exitcond48.not.lver.orig, label %._crit_edge.us38, label %.ph.lver.orig, !llvm.loop !178

.ph:                                              ; preds = %.lver.check
  %55 = shl nuw nsw i64 %indvar, 2
  %scevgep = getelementptr i8, ptr %1, i64 %55
  %load_initial = load float, ptr %scevgep, align 4
  %invariant.op = add i32 %.02936.us, %.pre50
  br label %56

56:                                               ; preds = %.ph, %56
  %store_forwarded = phi float [ %load_initial, %.ph ], [ %68, %56 ]
  %indvars.iv44 = phi i64 [ 1, %.ph ], [ %indvars.iv.next45, %56 ]
  %57 = trunc nuw i64 %indvars.iv44 to i32
  %58 = mul nuw i32 %.pre50, %57
  %59 = add i32 %58, %.02936.us
  %60 = zext i32 %59 to i64
  %61 = getelementptr inbounds nuw float, ptr %1, i64 %60
  %62 = load float, ptr %61, align 4, !tbaa !31
  %63 = fadd float %store_forwarded, %62
  %.reass = add i32 %58, %invariant.op
  %64 = zext i32 %.reass to i64
  %65 = getelementptr inbounds nuw float, ptr %1, i64 %64
  %66 = load float, ptr %65, align 4, !tbaa !31
  %67 = fadd float %63, %66
  %68 = fdiv float %67, 3.000000e+00
  store float %68, ptr %61, align 4, !tbaa !31
  %indvars.iv.next45 = add nuw nsw i64 %indvars.iv44, 1
  %exitcond48.not = icmp eq i64 %indvars.iv.next45, %wide.trip.count47
  br i1 %exitcond48.not, label %._crit_edge.us38, label %56, !llvm.loop !178

._crit_edge.us38:                                 ; preds = %56, %.ph.lver.orig
  %69 = add nuw i32 %.02936.us, 1
  %exitcond49.not = icmp eq i32 %69, %.pre50
  %indvar.next = add i64 %indvar, 1
  br i1 %exitcond49.not, label %._crit_edge37, label %.lver.check, !llvm.loop !179

._crit_edge37:                                    ; preds = %._crit_edge.us38, %.preheader.lr.ph, %.preheader31
  ret void
}